{
 Suppression 1
 Memcheck:Addr8
 fun:memmove
 fun:copy
 fun:_S_copy
 fun:_S_copy_chars
 fun:_S_copy_chars
 fun:_ZNSt7__cxx1112basic_stringIcSt11char_traitsIcESaIcEE12_M_constructIN9__gnu_cxx17__normal_iteratorIPKcS4_EEEEvT_SB_St20forward_iterator_tag.isra.0
 fun:basic_string<__gnu_cxx::__normal_iterator<char const*, std::__cxx11::basic_string<char> > >
 fun:str
 fun:operator std::__cxx11::sub_match<__gnu_cxx::__normal_iterator<char const*, std::__cxx11::basic_string<char> > >::string_type
 fun:_ZN4xcpp11interpreter20inspect_request_implERKNSt7__cxx1112basic_stringIcSt11char_traitsIcESaIcEEEii
 fun:_ZN4xeus12xinterpreter15inspect_requestERKNSt7__cxx1112basic_stringIcSt11char_traitsIcESaIcEEEii
 fun:_ZN21DOCTEST_ANON_SUITE_11L20DOCTEST_ANON_FUNC_14Ev
 fun:_ZN7doctest7Context3runEv
 fun:main
}

{
 Suppression 2
 Memcheck:Addr2
 fun:memmove
 fun:copy
 fun:_S_copy
 fun:_S_copy_chars
 fun:_S_copy_chars
 fun:_ZNSt7__cxx1112basic_stringIcSt11char_traitsIcESaIcEE12_M_constructIN9__gnu_cxx17__normal_iteratorIPKcS4_EEEEvT_SB_St20forward_iterator_tag.isra.0
 fun:basic_string<__gnu_cxx::__normal_iterator<char const*, std::__cxx11::basic_string<char> > >
 fun:str
 fun:operator std::__cxx11::sub_match<__gnu_cxx::__normal_iterator<char const*, std::__cxx11::basic_string<char> > >::string_type
 fun:_ZN4xcpp11interpreter20inspect_request_implERKNSt7__cxx1112basic_stringIcSt11char_traitsIcESaIcEEEii
 fun:_ZN4xeus12xinterpreter15inspect_requestERKNSt7__cxx1112basic_stringIcSt11char_traitsIcESaIcEEEii
 fun:_ZN21DOCTEST_ANON_SUITE_11L20DOCTEST_ANON_FUNC_14Ev
 fun:_ZN7doctest7Context3runEv
 fun:main
}

{
 Suppression 3
 Memcheck:Cond
 fun:_ZN4llvm5APInt7setBitsEjj
 fun:_ZL16computeKnownBitsPKN4llvm5ValueERKNS_5APIntERNS_9KnownBitsEjRKNS_13SimplifyQueryE
 fun:_ZN4llvm16computeKnownBitsEPKNS_5ValueERNS_9KnownBitsERKNS_10DataLayoutEjPNS_15AssumptionCacheEPKNS_11InstructionEPKNS_13DominatorTreeEb
 fun:_ZNK4llvm12SelectionDAG13InferPtrAlignENS_7SDValueE
 fun:_ZN12_GLOBAL__N_111DAGCombiner9visitLOADEPN4llvm6SDNodeE
 fun:_ZN12_GLOBAL__N_111DAGCombiner7combineEPN4llvm6SDNodeE
 fun:_ZN4llvm12SelectionDAG7CombineENS_12CombineLevelEPNS_14BatchAAResultsENS_15CodeGenOptLevelE
 fun:_ZN4llvm16SelectionDAGISel17CodeGenAndEmitDAGEv
 fun:_ZN4llvm16SelectionDAGISel20SelectAllBasicBlocksERKNS_8FunctionE
 fun:_ZN4llvm16SelectionDAGISel20runOnMachineFunctionERNS_15MachineFunctionE
 fun:_ZN4llvm22SelectionDAGISelLegacy20runOnMachineFunctionERNS_15MachineFunctionE
 fun:_ZN4llvm19MachineFunctionPass13runOnFunctionERNS_8FunctionE.part.0
}

{
 Suppression 4
 Memcheck:Addr1
 fun:memmove
 fun:copy
 fun:_S_copy
 fun:_S_copy_chars
 fun:_S_copy_chars
 fun:_ZNSt7__cxx1112basic_stringIcSt11char_traitsIcESaIcEE12_M_constructIN9__gnu_cxx17__normal_iteratorIPKcS4_EEEEvT_SB_St20forward_iterator_tag.isra.0
 fun:basic_string<__gnu_cxx::__normal_iterator<char const*, std::__cxx11::basic_string<char> > >
 fun:str
 fun:operator std::__cxx11::sub_match<__gnu_cxx::__normal_iterator<char const*, std::__cxx11::basic_string<char> > >::string_type
 fun:_ZN4xcpp11interpreter20inspect_request_implERKNSt7__cxx1112basic_stringIcSt11char_traitsIcESaIcEEEii
 fun:_ZN4xeus12xinterpreter15inspect_requestERKNSt7__cxx1112basic_stringIcSt11char_traitsIcESaIcEEEii
 fun:_ZN21DOCTEST_ANON_SUITE_11L20DOCTEST_ANON_FUNC_14Ev
 fun:_ZN7doctest7Context3runEv
 fun:main
}
